; ModuleID = 'source-C-CXX/30/1276.c'
source_filename = "source-C-CXX/30/1276.c"
target datalayout = "e-m:e-p270:32:32-p271:32:32-p272:64:64-i64:64-f80:128-n8:16:32:64-S128"
target triple = "x86_64-pc-linux-gnu"

%struct.student = type { [20 x i8], [20 x i8], i8, i32, [20 x i8], [20 x i8], %struct.student*, %struct.student* }

@n = dso_local local_unnamed_addr global i32 0, align 4
@.str = private unnamed_addr constant [3 x i8] c"%s\00", align 1
@.str.1 = private unnamed_addr constant [4 x i8] c"end\00", align 1
@.str.2 = private unnamed_addr constant [15 x i8] c"%s %c %d %s %s\00", align 1
@.str.3 = private unnamed_addr constant [18 x i8] c"%s %s %c %d %s %s\00", align 1
@.str.4 = private unnamed_addr constant [19 x i8] c"\0A%s %s %c %d %s %s\00", align 1

; Function Attrs: nofree nounwind sspstrong uwtable
define dso_local %struct.student* @creat() local_unnamed_addr #0 {
  store i32 0, i32* @n, align 4, !tbaa !5
  %1 = tail call noalias align 16 dereferenceable_or_null(100) i8* @malloc(i64 100) #4
  %2 = bitcast i8* %1 to %struct.student*
  %3 = getelementptr inbounds %struct.student, %struct.student* %2, i64 0, i32 0, i64 0
  %4 = tail call i32 (i8*, ...) @__isoc99_scanf(i8* getelementptr inbounds ([3 x i8], [3 x i8]* @.str, i64 0, i64 0), i8* %3)
  %5 = tail call i32 @strcmp(i8* noundef nonnull dereferenceable(1) %3, i8* noundef nonnull dereferenceable(4) getelementptr inbounds ([4 x i8], [4 x i8]* @.str.1, i64 0, i64 0)) #5
  %6 = icmp eq i32 %5, 0
  br i1 %6, label %29, label %7

7:                                                ; preds = %0, %21
  %8 = phi %struct.student* [ %9, %21 ], [ %2, %0 ]
  %9 = phi %struct.student* [ %23, %21 ], [ %2, %0 ]
  %10 = getelementptr inbounds %struct.student, %struct.student* %9, i64 0, i32 1, i64 0
  %11 = getelementptr inbounds %struct.student, %struct.student* %9, i64 0, i32 2
  %12 = getelementptr inbounds %struct.student, %struct.student* %9, i64 0, i32 3
  %13 = getelementptr inbounds %struct.student, %struct.student* %9, i64 0, i32 4, i64 0
  %14 = getelementptr inbounds %struct.student, %struct.student* %9, i64 0, i32 5, i64 0
  %15 = tail call i32 (i8*, ...) @__isoc99_scanf(i8* getelementptr inbounds ([15 x i8], [15 x i8]* @.str.2, i64 0, i64 0), i8* nonnull %10, i8* nonnull %11, i32* nonnull %12, i8* nonnull %13, i8* nonnull %14)
  %16 = load i32, i32* @n, align 4, !tbaa !5
  %17 = add nsw i32 %16, 1
  store i32 %17, i32* @n, align 4, !tbaa !5
  %18 = icmp eq i32 %16, 0
  br i1 %18, label %21, label %19

19:                                               ; preds = %7
  %20 = getelementptr inbounds %struct.student, %struct.student* %8, i64 0, i32 6
  store %struct.student* %9, %struct.student** %20, align 8, !tbaa !9
  br label %21

21:                                               ; preds = %7, %19
  %22 = tail call noalias align 16 dereferenceable_or_null(100) i8* @malloc(i64 100) #4
  %23 = bitcast i8* %22 to %struct.student*
  %24 = getelementptr inbounds %struct.student, %struct.student* %23, i64 0, i32 7
  store %struct.student* %9, %struct.student** %24, align 16, !tbaa !12
  %25 = getelementptr inbounds %struct.student, %struct.student* %23, i64 0, i32 0, i64 0
  %26 = tail call i32 (i8*, ...) @__isoc99_scanf(i8* getelementptr inbounds ([3 x i8], [3 x i8]* @.str, i64 0, i64 0), i8* %25)
  %27 = tail call i32 @strcmp(i8* noundef nonnull dereferenceable(1) %25, i8* noundef nonnull dereferenceable(4) getelementptr inbounds ([4 x i8], [4 x i8]* @.str.1, i64 0, i64 0)) #5
  %28 = icmp eq i32 %27, 0
  br i1 %28, label %29, label %7, !llvm.loop !13

29:                                               ; preds = %21, %0
  %30 = phi %struct.student* [ %2, %0 ], [ %9, %21 ]
  %31 = getelementptr inbounds %struct.student, %struct.student* %30, i64 0, i32 6
  store %struct.student* null, %struct.student** %31, align 8, !tbaa !9
  ret %struct.student* %30
}

; Function Attrs: inaccessiblememonly mustprogress nofree nounwind willreturn
declare noalias noundef align 16 i8* @malloc(i64 noundef) local_unnamed_addr #1

; Function Attrs: nofree nounwind
declare noundef i32 @__isoc99_scanf(i8* nocapture noundef readonly, ...) local_unnamed_addr #2

; Function Attrs: argmemonly mustprogress nofree nounwind readonly willreturn
declare i32 @strcmp(i8* nocapture, i8* nocapture) local_unnamed_addr #3

; Function Attrs: nofree nounwind sspstrong uwtable
define dso_local void @main() local_unnamed_addr #0 {
  %1 = tail call %struct.student* @creat()
  %2 = getelementptr inbounds %struct.student, %struct.student* %1, i64 0, i32 0
  %3 = getelementptr inbounds %struct.student, %struct.student* %1, i64 0, i32 1
  %4 = getelementptr inbounds %struct.student, %struct.student* %1, i64 0, i32 2
  %5 = load i8, i8* %4, align 8, !tbaa !15
  %6 = sext i8 %5 to i32
  %7 = getelementptr inbounds %struct.student, %struct.student* %1, i64 0, i32 3
  %8 = load i32, i32* %7, align 4, !tbaa !16
  %9 = getelementptr inbounds %struct.student, %struct.student* %1, i64 0, i32 4
  %10 = getelementptr inbounds %struct.student, %struct.student* %1, i64 0, i32 5
  %11 = tail call i32 (i8*, ...) @printf(i8* nonnull dereferenceable(1) getelementptr inbounds ([18 x i8], [18 x i8]* @.str.3, i64 0, i64 0), [20 x i8]* %2, [20 x i8]* nonnull %3, i32 %6, i32 %8, [20 x i8]* nonnull %9, [20 x i8]* nonnull %10)
  %12 = load i32, i32* @n, align 4, !tbaa !5
  %13 = icmp sgt i32 %12, 1
  br i1 %13, label %14, label %32

14:                                               ; preds = %0, %14
  %15 = phi i32 [ %29, %14 ], [ 1, %0 ]
  %16 = phi %struct.student* [ %18, %14 ], [ %1, %0 ]
  %17 = getelementptr inbounds %struct.student, %struct.student* %16, i64 0, i32 7
  %18 = load %struct.student*, %struct.student** %17, align 8, !tbaa !12
  %19 = getelementptr inbounds %struct.student, %struct.student* %18, i64 0, i32 0
  %20 = getelementptr inbounds %struct.student, %struct.student* %18, i64 0, i32 1
  %21 = getelementptr inbounds %struct.student, %struct.student* %18, i64 0, i32 2
  %22 = load i8, i8* %21, align 8, !tbaa !15
  %23 = sext i8 %22 to i32
  %24 = getelementptr inbounds %struct.student, %struct.student* %18, i64 0, i32 3
  %25 = load i32, i32* %24, align 4, !tbaa !16
  %26 = getelementptr inbounds %struct.student, %struct.student* %18, i64 0, i32 4
  %27 = getelementptr inbounds %struct.student, %struct.student* %18, i64 0, i32 5
  %28 = tail call i32 (i8*, ...) @printf(i8* nonnull dereferenceable(1) getelementptr inbounds ([19 x i8], [19 x i8]* @.str.4, i64 0, i64 0), [20 x i8]* %19, [20 x i8]* nonnull %20, i32 %23, i32 %25, [20 x i8]* nonnull %26, [20 x i8]* nonnull %27)
  %29 = add nuw nsw i32 %15, 1
  %30 = load i32, i32* @n, align 4, !tbaa !5
  %31 = icmp slt i32 %29, %30
  br i1 %31, label %14, label %32, !llvm.loop !17

32:                                               ; preds = %14, %0
  ret void
}

; Function Attrs: nofree nounwind
declare noundef i32 @printf(i8* nocapture noundef readonly, ...) local_unnamed_addr #2


!llvm.module.flags = !{!0, !1, !2, !3}
!llvm.ident = !{!4}

!0 = !{i32 1, !"wchar_size", i32 4}
!1 = !{i32 7, !"PIC Level", i32 2}
!2 = !{i32 7, !"PIE Level", i32 2}
!3 = !{i32 7, !"uwtable", i32 1}
!4 = !{!"clang version 13.0.0"}
!5 = !{!6, !6, i64 0}
!6 = !{!"int", !7, i64 0}
!7 = !{!"omnipotent char", !8, i64 0}
!8 = !{!"Simple C/C++ TBAA"}
!9 = !{!10, !11, i64 88}
!10 = !{!"student", !7, i64 0, !7, i64 20, !7, i64 40, !6, i64 44, !7, i64 48, !7, i64 68, !11, i64 88, !11, i64 96}
!11 = !{!"any pointer", !7, i64 0}
!12 = !{!10, !11, i64 96}
!13 = distinct !{!13, !14}
!14 = !{!"llvm.loop.mustprogress"}
!15 = !{!10, !7, i64 40}
!16 = !{!10, !6, i64 44}
!17 = distinct !{!17, !14}
